; Function Attrs: nounwind uwtable
define internal fastcc ptr @weakenNode(ptr noundef %0, ptr nocapture noundef %1, i8 noundef zeroext %2) unnamed_addr #0 {
  %4 = getelementptr inbounds i8, ptr %1, i64 28
  %5 = load i8, ptr %4, align 4
  %6 = icmp eq i8 %5, 0
  %7 = icmp ne i8 %2, 0
  %or.cond = or i1 %7, %6
  br i1 %or.cond, label %8, label %.thread31

8:                                                ; preds = %3
  %9 = getelementptr inbounds i8, ptr %1, i64 29
  %10 = load i8, ptr %9, align 1
  br i1 %6, label %11, label %isStrong.exit

11:                                               ; preds = %8
  %.not32 = icmp eq i8 %10, 0
  %12 = or i1 %.not32, %7
  br i1 %12, label %48, label %15

isStrong.exit:                                    ; preds = %8
  %13 = icmp ne i8 %10, 0
  %14 = and i1 %7, %13
  br i1 %14, label %48, label %15

15:                                               ; preds = %11, %isStrong.exit
  %16 = load ptr, ptr @gdata, align 8
  %17 = getelementptr inbounds i8, ptr %16, i64 528
  %18 = load i32, ptr %17, align 8
  %19 = and i32 %18, 2
  %.not = icmp eq i32 %19, 0
  br i1 %.not, label %21, label %20

20:                                               ; preds = %15
  tail call void @log_message_begin(ptr noundef nonnull @.str.1, ptr noundef nonnull @.str.2, i32 noundef 211) #5
  tail call void (ptr, ...) @log_message_end(ptr noundef nonnull @.str.3, ptr noundef nonnull @.str.9) #5
  br label %21

21:                                               ; preds = %15, %20
  %22 = load ptr, ptr %0, align 8
  %23 = getelementptr inbounds i8, ptr %22, i64 1808
  %24 = load ptr, ptr %23, align 8
  %25 = getelementptr inbounds i8, ptr %1, i64 8
  %26 = load ptr, ptr %25, align 8
  %27 = tail call ptr %24(ptr noundef nonnull %0, ptr noundef %26) #5
  %28 = load ptr, ptr %0, align 8
  %29 = getelementptr inbounds i8, ptr %28, i64 1824
  %30 = load ptr, ptr %29, align 8
  %31 = tail call zeroext i8 %30(ptr noundef nonnull %0) #5
  %.not27 = icmp eq i8 %31, 0
  br i1 %.not27, label %36, label %32

32:                                               ; preds = %21
  %33 = load ptr, ptr %0, align 8
  %34 = getelementptr inbounds i8, ptr %33, i64 136
  %35 = load ptr, ptr %34, align 8
  tail call void %35(ptr noundef nonnull %0) #5
  br label %36

36:                                               ; preds = %32, %21
  %.not28 = icmp eq ptr %27, null
  br i1 %.not28, label %54, label %37

37:                                               ; preds = %36
  %38 = load ptr, ptr @gdata, align 8
  %39 = getelementptr inbounds i8, ptr %38, i64 528
  %40 = load i32, ptr %39, align 8
  %41 = and i32 %40, 2
  %.not29 = icmp eq i32 %41, 0
  br i1 %.not29, label %43, label %42

42:                                               ; preds = %37
  tail call void @log_message_begin(ptr noundef nonnull @.str.1, ptr noundef nonnull @.str.2, i32 noundef 218) #5
  tail call void (ptr, ...) @log_message_end(ptr noundef nonnull @.str.3, ptr noundef nonnull @.str.14) #5
  br label %43

43:                                               ; preds = %37, %42
  %44 = load ptr, ptr %0, align 8
  %45 = getelementptr inbounds i8, ptr %44, i64 176
  %46 = load ptr, ptr %45, align 8
  %47 = load ptr, ptr %25, align 8
  tail call void %46(ptr noundef nonnull %0, ptr noundef %47) #5
  store ptr %27, ptr %25, align 8
  br label %48

48:                                               ; preds = %11, %43, %isStrong.exit
  br i1 %7, label %49, label %.thread31

49:                                               ; preds = %48
  store i8 0, ptr %4, align 4
  br label %51

.thread31:                                        ; preds = %3, %48
  %50 = getelementptr inbounds i8, ptr %1, i64 29
  store i8 0, ptr %50, align 1
  br label %51

51:                                               ; preds = %.thread31, %49
  %52 = getelementptr inbounds i8, ptr %1, i64 8
  %53 = load ptr, ptr %52, align 8
  br label %54

54:                                               ; preds = %36, %51
  %.0 = phi ptr [ %53, %51 ], [ null, %36 ]
  ret ptr %.0
}